; Function Attrs: mustprogress uwtable
define hidden void @_ZN15fpa_decl_plugin11set_managerEP11ast_manageri(ptr nocapture noundef nonnull align 8 dereferenceable(1008) %this, ptr noundef %m, i32 noundef %id) unnamed_addr #3 align 2 {
entry:
  %ref.tmp.i6 = alloca %class.symbol, align 8
  %ref.tmp.i = alloca %class.symbol, align 8
  %m_manager.i = getelementptr inbounds i8, ptr %this, i64 8
  store ptr %m, ptr %m_manager.i, align 8
  %m_family_id.i = getelementptr inbounds i8, ptr %this, i64 16
  store i32 %id, ptr %m_family_id.i, align 8
  call void @llvm.lifetime.start.p0(i64 8, ptr nonnull %ref.tmp.i)
  call void @_ZN6symbolC1EPKc(ptr noundef nonnull align 8 dereferenceable(8) %ref.tmp.i, ptr noundef nonnull @.str)
  %m_family_manager.i.i = getelementptr inbounds i8, ptr %m, i64 560
  %call.i.i = call noundef i32 @_ZN14family_manager12mk_family_idERK6symbol(ptr noundef nonnull align 8 dereferenceable(56) %m_family_manager.i.i, ptr noundef nonnull align 8 dereferenceable(8) %ref.tmp.i)
  call void @llvm.lifetime.end.p0(i64 8, ptr nonnull %ref.tmp.i)
  %m_arith_fid = getelementptr inbounds i8, ptr %this, i64 992
  store i32 %call.i.i, ptr %m_arith_fid, align 8
  %0 = load ptr, ptr %m_manager.i, align 8
  %call4 = call noundef ptr @_ZN11ast_manager7mk_sortEiijPK9parameter(ptr noundef nonnull align 8 dereferenceable(976) %0, i32 noundef %call.i.i, i32 noundef 0, i32 noundef 0, ptr noundef null)
  %m_real_sort = getelementptr inbounds i8, ptr %this, i64 976
  store ptr %call4, ptr %m_real_sort, align 8
  %tobool.not.i = icmp eq ptr %call4, null
  br i1 %tobool.not.i, label %_ZN11ast_manager7inc_refEP3ast.exit, label %if.then.i

if.then.i:                                        ; preds = %entry
  %m_ref_count.i.i = getelementptr inbounds i8, ptr %call4, i64 8
  %1 = load i32, ptr %m_ref_count.i.i, align 4
  %inc.i.i = add i32 %1, 1
  store i32 %inc.i.i, ptr %m_ref_count.i.i, align 4
  br label %_ZN11ast_manager7inc_refEP3ast.exit

_ZN11ast_manager7inc_refEP3ast.exit:              ; preds = %entry, %if.then.i
  %2 = load ptr, ptr %m_manager.i, align 8
  %3 = load i32, ptr %m_arith_fid, align 8
  %call9 = call noundef ptr @_ZN11ast_manager7mk_sortEiijPK9parameter(ptr noundef nonnull align 8 dereferenceable(976) %2, i32 noundef %3, i32 noundef 1, i32 noundef 0, ptr noundef null)
  %m_int_sort = getelementptr inbounds i8, ptr %this, i64 984
  store ptr %call9, ptr %m_int_sort, align 8
  %tobool.not.i1 = icmp eq ptr %call9, null
  br i1 %tobool.not.i1, label %_ZN11ast_manager7inc_refEP3ast.exit5, label %if.then.i2

if.then.i2:                                       ; preds = %_ZN11ast_manager7inc_refEP3ast.exit
  %m_ref_count.i.i3 = getelementptr inbounds i8, ptr %call9, i64 8
  %4 = load i32, ptr %m_ref_count.i.i3, align 4
  %inc.i.i4 = add i32 %4, 1
  store i32 %inc.i.i4, ptr %m_ref_count.i.i3, align 4
  br label %_ZN11ast_manager7inc_refEP3ast.exit5

_ZN11ast_manager7inc_refEP3ast.exit5:             ; preds = %_ZN11ast_manager7inc_refEP3ast.exit, %if.then.i2
  %5 = load ptr, ptr %m_manager.i, align 8
  call void @llvm.lifetime.start.p0(i64 8, ptr nonnull %ref.tmp.i6)
  call void @_ZN6symbolC1EPKc(ptr noundef nonnull align 8 dereferenceable(8) %ref.tmp.i6, ptr noundef nonnull @.str.1)
  %m_family_manager.i.i7 = getelementptr inbounds i8, ptr %5, i64 560
  %call.i.i8 = call noundef i32 @_ZN14family_manager12mk_family_idERK6symbol(ptr noundef nonnull align 8 dereferenceable(56) %m_family_manager.i.i7, ptr noundef nonnull align 8 dereferenceable(8) %ref.tmp.i6)
  call void @llvm.lifetime.end.p0(i64 8, ptr nonnull %ref.tmp.i6)
  %m_bv_fid = getelementptr inbounds i8, ptr %this, i64 996
  store i32 %call.i.i8, ptr %m_bv_fid, align 4
  %6 = load ptr, ptr %m_manager.i, align 8
  %call16 = call noundef ptr @_ZNK11ast_manager10get_pluginEi(ptr noundef nonnull align 8 dereferenceable(976) %6, i32 noundef %call.i.i8)
  %m_bv_plugin = getelementptr inbounds i8, ptr %this, i64 1000
  store ptr %call16, ptr %m_bv_plugin, align 8
  ret void
}